; Function Attrs: mustprogress uwtable
define void @_ZN18ExportObjectDialog13keyPressEventEP9QKeyEvent(ptr noundef nonnull align 8 dereferenceable(328) %0, ptr noundef %1) unnamed_addr #0 align 2 {
  %3 = getelementptr inbounds i8, ptr %1, i64 64
  %4 = load i32, ptr %3, align 8
  %5 = and i32 %4, -2
  %switch = icmp eq i32 %5, 16777220
  br i1 %switch, label %7, label %6

6:                                                ; preds = %2
  tail call void @_ZN7QDialog13keyPressEventEP9QKeyEvent(ptr noundef nonnull align 8 dereferenceable(40) %0, ptr noundef nonnull %1)
  br label %7

7:                                                ; preds = %2, %6
  ret void
}